cnumpy.core.multiarray
_reconstruct
p0
(cnumpy
ndarray
p1
(I0
tp2
S'b'
p3
tp4
Rp5
(I1
(L3L
tp6
cnumpy
dtype
p7
(S'f8'
p8
I0
I1
tp9
Rp10
(I3
S'<'
p11
NNNI-1
I-1
I0
tp12
bI00
S'\xd4\x07b\xf0\xc9\x06\xf0\xbf.\xbal\x8c\x8c\xc0\xf5? /\xfas4\x8a\x05@'
p13
tp14
b.