cnumpy.core.multiarray
_reconstruct
p0
(cnumpy
ndarray
p1
(I0
tp2
S'b'
p3
tp4
Rp5
(I1
(L4L
tp6
cnumpy
dtype
p7
(S'f8'
p8
I0
I1
tp9
Rp10
(I3
S'<'
p11
NNNI-1
I-1
I0
tp12
bI00
S'H/t\xaa\xc2e \xc0\x17\xaaO{\x05\x90\t@\x1b\xda\xc8&\x84>\xf0?\xe8\xb6\xfc]\xa8W\x05@'
p13
tp14
b.