cnumpy.core.multiarray
_reconstruct
p0
(cnumpy
ndarray
p1
(I0
tp2
S'b'
p3
tp4
Rp5
(I1
(L3L
tp6
cnumpy
dtype
p7
(S'f8'
p8
I0
I1
tp9
Rp10
(I3
S'<'
p11
NNNI-1
I-1
I0
tp12
bI00
S'>O$\xde\x8e\\\x00\xbfkl\x02yPi\x93?Sl\xb1\x9f"\x10\xd1?'
p13
tp14
b.