cnumpy.core.multiarray
_reconstruct
p0
(cnumpy
ndarray
p1
(I0
tp2
S'b'
p3
tp4
Rp5
(I1
(L3L
tp6
cnumpy
dtype
p7
(S'f8'
p8
I0
I1
tp9
Rp10
(I3
S'<'
p11
NNNI-1
I-1
I0
tp12
bI00
S'\xb5\x07\xeeO\x9cY\xff\xbe\xd9Ox\xa4R\xd7\x92?\xa6{i\x06\x0c\xf1\xd4?'
p13
tp14
b.